ARM GAS  C:\Users\Siddhesh\AppData\Local\Temp\cc2bYhQs.s 			page 1


   1              		.cpu cortex-m4
   2              		.arch armv7e-m
   3              		.fpu fpv4-sp-d16
   4              		.eabi_attribute 27, 1
   5              		.eabi_attribute 28, 1
   6              		.eabi_attribute 20, 1
   7              		.eabi_attribute 21, 1
   8              		.eabi_attribute 23, 3
   9              		.eabi_attribute 24, 1
  10              		.eabi_attribute 25, 1
  11              		.eabi_attribute 26, 1
  12              		.eabi_attribute 30, 6
  13              		.eabi_attribute 34, 1
  14              		.eabi_attribute 18, 4
  15              		.file	"mpu6050.c"
  16              		.text
  17              	.Ltext0:
  18              		.cfi_sections	.debug_frame
  19              		.file 1 "Core/Src/mpu6050.c"
  20              		.section	.text.checkMPU6050Connection,"ax",%progbits
  21              		.align	1
  22              		.global	checkMPU6050Connection
  23              		.syntax unified
  24              		.thumb
  25              		.thumb_func
  27              	checkMPU6050Connection:
  28              	.LFB137:
   1:Core/Src/mpu6050.c **** #include <mpu6050.h>
   2:Core/Src/mpu6050.c **** #include <stdio.h>
   3:Core/Src/mpu6050.c **** #include <IIRFirstOrderFilter.h>
   4:Core/Src/mpu6050.c **** 
   5:Core/Src/mpu6050.c **** // extern I2C_HandleTypeDef hi2c1;
   6:Core/Src/mpu6050.c **** HAL_StatusTypeDef checkMPU6050Connection(I2C_HandleTypeDef * hi2c1) {
  29              		.loc 1 6 69
  30              		.cfi_startproc
  31              		@ args = 0, pretend = 0, frame = 16
  32              		@ frame_needed = 1, uses_anonymous_args = 0
  33 0000 80B5     		push	{r7, lr}
  34              	.LCFI0:
  35              		.cfi_def_cfa_offset 8
  36              		.cfi_offset 7, -8
  37              		.cfi_offset 14, -4
  38 0002 84B0     		sub	sp, sp, #16
  39              	.LCFI1:
  40              		.cfi_def_cfa_offset 24
  41 0004 00AF     		add	r7, sp, #0
  42              	.LCFI2:
  43              		.cfi_def_cfa_register 7
  44 0006 7860     		str	r0, [r7, #4]
   7:Core/Src/mpu6050.c ****     HAL_StatusTypeDef ret = HAL_I2C_IsDeviceReady(hi2c1, devAddress, 6, 1000);
  45              		.loc 1 7 29
  46 0008 4FF47A73 		mov	r3, #1000
  47 000c 0622     		movs	r2, #6
  48 000e D021     		movs	r1, #208
  49 0010 7868     		ldr	r0, [r7, #4]
  50 0012 FFF7FEFF 		bl	HAL_I2C_IsDeviceReady
  51 0016 0346     		mov	r3, r0
ARM GAS  C:\Users\Siddhesh\AppData\Local\Temp\cc2bYhQs.s 			page 2


  52 0018 FB73     		strb	r3, [r7, #15]
   8:Core/Src/mpu6050.c ****     return ret;
  53              		.loc 1 8 12
  54 001a FB7B     		ldrb	r3, [r7, #15]	@ zero_extendqisi2
   9:Core/Src/mpu6050.c **** }
  55              		.loc 1 9 1
  56 001c 1846     		mov	r0, r3
  57 001e 1037     		adds	r7, r7, #16
  58              	.LCFI3:
  59              		.cfi_def_cfa_offset 8
  60 0020 BD46     		mov	sp, r7
  61              	.LCFI4:
  62              		.cfi_def_cfa_register 13
  63              		@ sp needed
  64 0022 80BD     		pop	{r7, pc}
  65              		.cfi_endproc
  66              	.LFE137:
  68              		.section	.text.mpu6050_init,"ax",%progbits
  69              		.align	1
  70              		.global	mpu6050_init
  71              		.syntax unified
  72              		.thumb
  73              		.thumb_func
  75              	mpu6050_init:
  76              	.LFB138:
  10:Core/Src/mpu6050.c **** 
  11:Core/Src/mpu6050.c **** void mpu6050_init(I2C_HandleTypeDef * hi2c1, IIRFilter * iir_x, IIRFilter * iir_y, IIRFilter * iir_
  77              		.loc 1 11 103
  78              		.cfi_startproc
  79              		@ args = 0, pretend = 0, frame = 24
  80              		@ frame_needed = 1, uses_anonymous_args = 0
  81 0000 80B5     		push	{r7, lr}
  82              	.LCFI5:
  83              		.cfi_def_cfa_offset 8
  84              		.cfi_offset 7, -8
  85              		.cfi_offset 14, -4
  86 0002 8AB0     		sub	sp, sp, #40
  87              	.LCFI6:
  88              		.cfi_def_cfa_offset 48
  89 0004 04AF     		add	r7, sp, #16
  90              	.LCFI7:
  91              		.cfi_def_cfa 7, 32
  92 0006 F860     		str	r0, [r7, #12]
  93 0008 B960     		str	r1, [r7, #8]
  94 000a 7A60     		str	r2, [r7, #4]
  95 000c 3B60     		str	r3, [r7]
  12:Core/Src/mpu6050.c ****     HAL_StatusTypeDef mpuReady = checkMPU6050Connection(hi2c1);
  96              		.loc 1 12 34
  97 000e F868     		ldr	r0, [r7, #12]
  98 0010 FFF7FEFF 		bl	checkMPU6050Connection
  99 0014 0346     		mov	r3, r0
 100 0016 FB75     		strb	r3, [r7, #23]
  13:Core/Src/mpu6050.c ****     uint8_t check;
  14:Core/Src/mpu6050.c ****     uint8_t Data;
  15:Core/Src/mpu6050.c **** 
  16:Core/Src/mpu6050.c ****     // check device ID WHO_AM_I
  17:Core/Src/mpu6050.c ****     if (mpuReady == HAL_OK)
ARM GAS  C:\Users\Siddhesh\AppData\Local\Temp\cc2bYhQs.s 			page 3


 101              		.loc 1 17 8
 102 0018 FB7D     		ldrb	r3, [r7, #23]	@ zero_extendqisi2
 103 001a 002B     		cmp	r3, #0
 104 001c 0CD1     		bne	.L4
  18:Core/Src/mpu6050.c ****     HAL_I2C_Mem_Read(hi2c1, devAddress, WHO_AM_I_REG, 1, &check, 1, 100);
 105              		.loc 1 18 5
 106 001e 6423     		movs	r3, #100
 107 0020 0293     		str	r3, [sp, #8]
 108 0022 0123     		movs	r3, #1
 109 0024 0193     		str	r3, [sp, #4]
 110 0026 07F11303 		add	r3, r7, #19
 111 002a 0093     		str	r3, [sp]
 112 002c 0123     		movs	r3, #1
 113 002e 7522     		movs	r2, #117
 114 0030 D021     		movs	r1, #208
 115 0032 F868     		ldr	r0, [r7, #12]
 116 0034 FFF7FEFF 		bl	HAL_I2C_Mem_Read
 117              	.L4:
  19:Core/Src/mpu6050.c ****     
  20:Core/Src/mpu6050.c ****     if (check == 0x68) {
 118              		.loc 1 20 15
 119 0038 FB7C     		ldrb	r3, [r7, #19]	@ zero_extendqisi2
 120              		.loc 1 20 8
 121 003a 682B     		cmp	r3, #104
 122 003c 42D1     		bne	.L5
 123              	.LBB2:
  21:Core/Src/mpu6050.c ****         /* Switch on the MPU */
  22:Core/Src/mpu6050.c ****         uint8_t tempData = 0b00000000;
 124              		.loc 1 22 17
 125 003e 0023     		movs	r3, #0
 126 0040 BB74     		strb	r3, [r7, #18]
  23:Core/Src/mpu6050.c ****         HAL_StatusTypeDef switchOnFlag = HAL_I2C_Mem_Write(hi2c1, devAddress, REG_PWR_MGMT_1, 1, &t
 127              		.loc 1 23 42
 128 0042 6423     		movs	r3, #100
 129 0044 0293     		str	r3, [sp, #8]
 130 0046 0123     		movs	r3, #1
 131 0048 0193     		str	r3, [sp, #4]
 132 004a 07F11203 		add	r3, r7, #18
 133 004e 0093     		str	r3, [sp]
 134 0050 0123     		movs	r3, #1
 135 0052 6B22     		movs	r2, #107
 136 0054 D021     		movs	r1, #208
 137 0056 F868     		ldr	r0, [r7, #12]
 138 0058 FFF7FEFF 		bl	HAL_I2C_Mem_Write
 139 005c 0346     		mov	r3, r0
 140 005e BB75     		strb	r3, [r7, #22]
  24:Core/Src/mpu6050.c ****         /* Data Rate */
  25:Core/Src/mpu6050.c ****         tempData = 0x07;
 141              		.loc 1 25 18
 142 0060 0723     		movs	r3, #7
 143 0062 BB74     		strb	r3, [r7, #18]
  26:Core/Src/mpu6050.c ****         HAL_I2C_Mem_Write(hi2c1, devAddress, tempData, 1, &tempData, 1, 100);
 144              		.loc 1 26 9
 145 0064 BB7C     		ldrb	r3, [r7, #18]	@ zero_extendqisi2
 146 0066 1A46     		mov	r2, r3
 147 0068 6423     		movs	r3, #100
 148 006a 0293     		str	r3, [sp, #8]
ARM GAS  C:\Users\Siddhesh\AppData\Local\Temp\cc2bYhQs.s 			page 4


 149 006c 0123     		movs	r3, #1
 150 006e 0193     		str	r3, [sp, #4]
 151 0070 07F11203 		add	r3, r7, #18
 152 0074 0093     		str	r3, [sp]
 153 0076 0123     		movs	r3, #1
 154 0078 D021     		movs	r1, #208
 155 007a F868     		ldr	r0, [r7, #12]
 156 007c FFF7FEFF 		bl	HAL_I2C_Mem_Write
  27:Core/Src/mpu6050.c ****         /* Setup Gyroscope */
  28:Core/Src/mpu6050.c ****         tempData = FS_GYRO_CONFIG_500;
 157              		.loc 1 28 18
 158 0080 0823     		movs	r3, #8
 159 0082 BB74     		strb	r3, [r7, #18]
  29:Core/Src/mpu6050.c ****         HAL_StatusTypeDef gyroSetupFlag = HAL_I2C_Mem_Write(hi2c1, devAddress, REG_GYRO_CONFIG, 1, 
 160              		.loc 1 29 43
 161 0084 6423     		movs	r3, #100
 162 0086 0293     		str	r3, [sp, #8]
 163 0088 0123     		movs	r3, #1
 164 008a 0193     		str	r3, [sp, #4]
 165 008c 07F11203 		add	r3, r7, #18
 166 0090 0093     		str	r3, [sp]
 167 0092 0123     		movs	r3, #1
 168 0094 1B22     		movs	r2, #27
 169 0096 D021     		movs	r1, #208
 170 0098 F868     		ldr	r0, [r7, #12]
 171 009a FFF7FEFF 		bl	HAL_I2C_Mem_Write
 172 009e 0346     		mov	r3, r0
 173 00a0 7B75     		strb	r3, [r7, #21]
  30:Core/Src/mpu6050.c ****         /* Setup Acceleration */
  31:Core/Src/mpu6050.c ****         tempData = FS_ACC_CONFIG_4G;
 174              		.loc 1 31 18
 175 00a2 0823     		movs	r3, #8
 176 00a4 BB74     		strb	r3, [r7, #18]
  32:Core/Src/mpu6050.c ****         HAL_StatusTypeDef accelSetupFlag = HAL_I2C_Mem_Write(hi2c1, devAddress, REG_ACC_CONFIG, 1, 
 177              		.loc 1 32 44
 178 00a6 6423     		movs	r3, #100
 179 00a8 0293     		str	r3, [sp, #8]
 180 00aa 0123     		movs	r3, #1
 181 00ac 0193     		str	r3, [sp, #4]
 182 00ae 07F11203 		add	r3, r7, #18
 183 00b2 0093     		str	r3, [sp]
 184 00b4 0123     		movs	r3, #1
 185 00b6 1C22     		movs	r2, #28
 186 00b8 D021     		movs	r1, #208
 187 00ba F868     		ldr	r0, [r7, #12]
 188 00bc FFF7FEFF 		bl	HAL_I2C_Mem_Write
 189 00c0 0346     		mov	r3, r0
 190 00c2 3B75     		strb	r3, [r7, #20]
 191              	.L5:
 192              	.LBE2:
  33:Core/Src/mpu6050.c ****         
  34:Core/Src/mpu6050.c ****     }
  35:Core/Src/mpu6050.c ****     IIRFilterInit(iir_x, 0.5);
 193              		.loc 1 35 5
 194 00c4 B6EE000A 		vmov.f32	s0, #5.0e-1
 195 00c8 B868     		ldr	r0, [r7, #8]
 196 00ca FFF7FEFF 		bl	IIRFilterInit
ARM GAS  C:\Users\Siddhesh\AppData\Local\Temp\cc2bYhQs.s 			page 5


  36:Core/Src/mpu6050.c ****     IIRFilterInit(iir_y, 0.5);
 197              		.loc 1 36 5
 198 00ce B6EE000A 		vmov.f32	s0, #5.0e-1
 199 00d2 7868     		ldr	r0, [r7, #4]
 200 00d4 FFF7FEFF 		bl	IIRFilterInit
  37:Core/Src/mpu6050.c ****     IIRFilterInit(iir_z, 0.5);
 201              		.loc 1 37 5
 202 00d8 B6EE000A 		vmov.f32	s0, #5.0e-1
 203 00dc 3868     		ldr	r0, [r7]
 204 00de FFF7FEFF 		bl	IIRFilterInit
  38:Core/Src/mpu6050.c **** 
  39:Core/Src/mpu6050.c **** }
 205              		.loc 1 39 1
 206 00e2 00BF     		nop
 207 00e4 1837     		adds	r7, r7, #24
 208              	.LCFI8:
 209              		.cfi_def_cfa_offset 8
 210 00e6 BD46     		mov	sp, r7
 211              	.LCFI9:
 212              		.cfi_def_cfa_register 13
 213              		@ sp needed
 214 00e8 80BD     		pop	{r7, pc}
 215              		.cfi_endproc
 216              	.LFE138:
 218              		.global	__aeabi_i2d
 219              		.global	__aeabi_dmul
 220              		.global	__aeabi_ddiv
 221              		.global	__aeabi_d2f
 222              		.global	__aeabi_f2d
 223              		.section	.text.mpu6050_readData,"ax",%progbits
 224              		.align	1
 225              		.global	mpu6050_readData
 226              		.syntax unified
 227              		.thumb
 228              		.thumb_func
 230              	mpu6050_readData:
 231              	.LFB139:
  40:Core/Src/mpu6050.c **** 
  41:Core/Src/mpu6050.c **** 
  42:Core/Src/mpu6050.c **** 
  43:Core/Src/mpu6050.c **** void mpu6050_readData(I2C_HandleTypeDef * hi2c1, MPU6050_t * mpuVar, IIRFilter * iir_x, IIRFilter *
 232              		.loc 1 43 127
 233              		.cfi_startproc
 234              		@ args = 4, pretend = 0, frame = 32
 235              		@ frame_needed = 1, uses_anonymous_args = 0
 236 0000 80B5     		push	{r7, lr}
 237              	.LCFI10:
 238              		.cfi_def_cfa_offset 8
 239              		.cfi_offset 7, -8
 240              		.cfi_offset 14, -4
 241 0002 8CB0     		sub	sp, sp, #48
 242              	.LCFI11:
 243              		.cfi_def_cfa_offset 56
 244 0004 04AF     		add	r7, sp, #16
 245              	.LCFI12:
 246              		.cfi_def_cfa 7, 40
 247 0006 F860     		str	r0, [r7, #12]
ARM GAS  C:\Users\Siddhesh\AppData\Local\Temp\cc2bYhQs.s 			page 6


 248 0008 B960     		str	r1, [r7, #8]
 249 000a 7A60     		str	r2, [r7, #4]
 250 000c 3B60     		str	r3, [r7]
  44:Core/Src/mpu6050.c ****     uint8_t accData[6];
  45:Core/Src/mpu6050.c ****     HAL_StatusTypeDef isItReading = HAL_I2C_Mem_Read(hi2c1, devAddress, ACCEL_XOUT_H_REG, 1, accDat
 251              		.loc 1 45 37
 252 000e 6423     		movs	r3, #100
 253 0010 0293     		str	r3, [sp, #8]
 254 0012 0623     		movs	r3, #6
 255 0014 0193     		str	r3, [sp, #4]
 256 0016 07F11803 		add	r3, r7, #24
 257 001a 0093     		str	r3, [sp]
 258 001c 0123     		movs	r3, #1
 259 001e 3B22     		movs	r2, #59
 260 0020 D021     		movs	r1, #208
 261 0022 F868     		ldr	r0, [r7, #12]
 262 0024 FFF7FEFF 		bl	HAL_I2C_Mem_Read
 263 0028 0346     		mov	r3, r0
 264 002a FB77     		strb	r3, [r7, #31]
  46:Core/Src/mpu6050.c **** 
  47:Core/Src/mpu6050.c ****     mpuVar->raw_xaccel = (int16_t)((accData[0]<<8) | accData[1]);
 265              		.loc 1 47 44
 266 002c 3B7E     		ldrb	r3, [r7, #24]	@ zero_extendqisi2
 267              		.loc 1 47 26
 268 002e 1BB2     		sxth	r3, r3
 269 0030 1B02     		lsls	r3, r3, #8
 270 0032 1AB2     		sxth	r2, r3
 271              		.loc 1 47 61
 272 0034 7B7E     		ldrb	r3, [r7, #25]	@ zero_extendqisi2
 273 0036 1BB2     		sxth	r3, r3
 274              		.loc 1 47 26
 275 0038 1343     		orrs	r3, r3, r2
 276 003a 1AB2     		sxth	r2, r3
 277              		.loc 1 47 24
 278 003c BB68     		ldr	r3, [r7, #8]
 279 003e 1A80     		strh	r2, [r3]	@ movhi
  48:Core/Src/mpu6050.c ****     mpuVar->raw_yaccel = (int16_t)((accData[2]<<8) | accData[3]);
 280              		.loc 1 48 44
 281 0040 BB7E     		ldrb	r3, [r7, #26]	@ zero_extendqisi2
 282              		.loc 1 48 26
 283 0042 1BB2     		sxth	r3, r3
 284 0044 1B02     		lsls	r3, r3, #8
 285 0046 1AB2     		sxth	r2, r3
 286              		.loc 1 48 61
 287 0048 FB7E     		ldrb	r3, [r7, #27]	@ zero_extendqisi2
 288 004a 1BB2     		sxth	r3, r3
 289              		.loc 1 48 26
 290 004c 1343     		orrs	r3, r3, r2
 291 004e 1AB2     		sxth	r2, r3
 292              		.loc 1 48 24
 293 0050 BB68     		ldr	r3, [r7, #8]
 294 0052 5A80     		strh	r2, [r3, #2]	@ movhi
  49:Core/Src/mpu6050.c ****     mpuVar->raw_zaccel = (int16_t)((accData[4]<<8) | accData[5]);
 295              		.loc 1 49 44
 296 0054 3B7F     		ldrb	r3, [r7, #28]	@ zero_extendqisi2
 297              		.loc 1 49 26
 298 0056 1BB2     		sxth	r3, r3
ARM GAS  C:\Users\Siddhesh\AppData\Local\Temp\cc2bYhQs.s 			page 7


 299 0058 1B02     		lsls	r3, r3, #8
 300 005a 1AB2     		sxth	r2, r3
 301              		.loc 1 49 61
 302 005c 7B7F     		ldrb	r3, [r7, #29]	@ zero_extendqisi2
 303 005e 1BB2     		sxth	r3, r3
 304              		.loc 1 49 26
 305 0060 1343     		orrs	r3, r3, r2
 306 0062 1AB2     		sxth	r2, r3
 307              		.loc 1 49 24
 308 0064 BB68     		ldr	r3, [r7, #8]
 309 0066 9A80     		strh	r2, [r3, #4]	@ movhi
  50:Core/Src/mpu6050.c **** 
  51:Core/Src/mpu6050.c ****     mpuVar->Ax = mpuVar->raw_xaccel * ACC_FS_4G_SCALE;
 310              		.loc 1 51 24
 311 0068 BB68     		ldr	r3, [r7, #8]
 312 006a B3F90030 		ldrsh	r3, [r3]
 313              		.loc 1 51 37
 314 006e 1846     		mov	r0, r3
 315 0070 FFF7FEFF 		bl	__aeabi_i2d
 316 0074 76A3     		adr	r3, .L7
 317 0076 D3E90023 		ldrd	r2, [r3]
 318 007a FFF7FEFF 		bl	__aeabi_dmul
 319 007e 0246     		mov	r2, r0
 320 0080 0B46     		mov	r3, r1
 321 0082 1046     		mov	r0, r2
 322 0084 1946     		mov	r1, r3
 323              		.loc 1 51 39
 324 0086 4FF00002 		mov	r2, #0
 325 008a 754B     		ldr	r3, .L7+16
 326 008c FFF7FEFF 		bl	__aeabi_ddiv
 327 0090 0246     		mov	r2, r0
 328 0092 0B46     		mov	r3, r1
 329              		.loc 1 51 16
 330 0094 B968     		ldr	r1, [r7, #8]
 331 0096 C1E90223 		strd	r2, [r1, #8]
  52:Core/Src/mpu6050.c ****     mpuVar->Ay = mpuVar->raw_yaccel * ACC_FS_4G_SCALE;
 332              		.loc 1 52 24
 333 009a BB68     		ldr	r3, [r7, #8]
 334 009c B3F90230 		ldrsh	r3, [r3, #2]
 335              		.loc 1 52 37
 336 00a0 1846     		mov	r0, r3
 337 00a2 FFF7FEFF 		bl	__aeabi_i2d
 338 00a6 6AA3     		adr	r3, .L7
 339 00a8 D3E90023 		ldrd	r2, [r3]
 340 00ac FFF7FEFF 		bl	__aeabi_dmul
 341 00b0 0246     		mov	r2, r0
 342 00b2 0B46     		mov	r3, r1
 343 00b4 1046     		mov	r0, r2
 344 00b6 1946     		mov	r1, r3
 345              		.loc 1 52 39
 346 00b8 4FF00002 		mov	r2, #0
 347 00bc 684B     		ldr	r3, .L7+16
 348 00be FFF7FEFF 		bl	__aeabi_ddiv
 349 00c2 0246     		mov	r2, r0
 350 00c4 0B46     		mov	r3, r1
 351              		.loc 1 52 16
 352 00c6 B968     		ldr	r1, [r7, #8]
ARM GAS  C:\Users\Siddhesh\AppData\Local\Temp\cc2bYhQs.s 			page 8


 353 00c8 C1E90423 		strd	r2, [r1, #16]
  53:Core/Src/mpu6050.c ****     mpuVar->Az = mpuVar->raw_zaccel * ACC_FS_4G_SCALE;
 354              		.loc 1 53 24
 355 00cc BB68     		ldr	r3, [r7, #8]
 356 00ce B3F90430 		ldrsh	r3, [r3, #4]
 357              		.loc 1 53 37
 358 00d2 1846     		mov	r0, r3
 359 00d4 FFF7FEFF 		bl	__aeabi_i2d
 360 00d8 5DA3     		adr	r3, .L7
 361 00da D3E90023 		ldrd	r2, [r3]
 362 00de FFF7FEFF 		bl	__aeabi_dmul
 363 00e2 0246     		mov	r2, r0
 364 00e4 0B46     		mov	r3, r1
 365 00e6 1046     		mov	r0, r2
 366 00e8 1946     		mov	r1, r3
 367              		.loc 1 53 39
 368 00ea 4FF00002 		mov	r2, #0
 369 00ee 5C4B     		ldr	r3, .L7+16
 370 00f0 FFF7FEFF 		bl	__aeabi_ddiv
 371 00f4 0246     		mov	r2, r0
 372 00f6 0B46     		mov	r3, r1
 373              		.loc 1 53 16
 374 00f8 B968     		ldr	r1, [r7, #8]
 375 00fa C1E90623 		strd	r2, [r1, #24]
  54:Core/Src/mpu6050.c **** 
  55:Core/Src/mpu6050.c ****     mpuVar->Ax_iir = IIRFilterUpdate(iir_x, mpuVar->Ax);
 376              		.loc 1 55 51
 377 00fe BB68     		ldr	r3, [r7, #8]
 378 0100 D3E90223 		ldrd	r2, [r3, #8]
 379              		.loc 1 55 22
 380 0104 1046     		mov	r0, r2
 381 0106 1946     		mov	r1, r3
 382 0108 FFF7FEFF 		bl	__aeabi_d2f
 383 010c 0346     		mov	r3, r0	@ float
 384 010e 00EE103A 		vmov	s0, r3
 385 0112 7868     		ldr	r0, [r7, #4]
 386 0114 FFF7FEFF 		bl	IIRFilterUpdate
 387 0118 10EE103A 		vmov	r3, s0
 388              		.loc 1 55 22 is_stmt 0 discriminator 1
 389 011c 1846     		mov	r0, r3	@ float
 390 011e FFF7FEFF 		bl	__aeabi_f2d
 391 0122 0246     		mov	r2, r0
 392 0124 0B46     		mov	r3, r1
 393              		.loc 1 55 20 is_stmt 1 discriminator 1
 394 0126 B968     		ldr	r1, [r7, #8]
 395 0128 C1E90823 		strd	r2, [r1, #32]
  56:Core/Src/mpu6050.c ****     mpuVar->Ay_iir = IIRFilterUpdate(iir_y, mpuVar->Ay);
 396              		.loc 1 56 51
 397 012c BB68     		ldr	r3, [r7, #8]
 398 012e D3E90423 		ldrd	r2, [r3, #16]
 399              		.loc 1 56 22
 400 0132 1046     		mov	r0, r2
 401 0134 1946     		mov	r1, r3
 402 0136 FFF7FEFF 		bl	__aeabi_d2f
 403 013a 0346     		mov	r3, r0	@ float
 404 013c 00EE103A 		vmov	s0, r3
 405 0140 3868     		ldr	r0, [r7]
ARM GAS  C:\Users\Siddhesh\AppData\Local\Temp\cc2bYhQs.s 			page 9


 406 0142 FFF7FEFF 		bl	IIRFilterUpdate
 407 0146 10EE103A 		vmov	r3, s0
 408              		.loc 1 56 22 is_stmt 0 discriminator 1
 409 014a 1846     		mov	r0, r3	@ float
 410 014c FFF7FEFF 		bl	__aeabi_f2d
 411 0150 0246     		mov	r2, r0
 412 0152 0B46     		mov	r3, r1
 413              		.loc 1 56 20 is_stmt 1 discriminator 1
 414 0154 B968     		ldr	r1, [r7, #8]
 415 0156 C1E90A23 		strd	r2, [r1, #40]
  57:Core/Src/mpu6050.c ****     mpuVar->Az_iir = IIRFilterUpdate(iir_z, mpuVar->Az);
 416              		.loc 1 57 51
 417 015a BB68     		ldr	r3, [r7, #8]
 418 015c D3E90623 		ldrd	r2, [r3, #24]
 419              		.loc 1 57 22
 420 0160 1046     		mov	r0, r2
 421 0162 1946     		mov	r1, r3
 422 0164 FFF7FEFF 		bl	__aeabi_d2f
 423 0168 0346     		mov	r3, r0	@ float
 424 016a 00EE103A 		vmov	s0, r3
 425 016e B86A     		ldr	r0, [r7, #40]
 426 0170 FFF7FEFF 		bl	IIRFilterUpdate
 427 0174 10EE103A 		vmov	r3, s0
 428              		.loc 1 57 22 is_stmt 0 discriminator 1
 429 0178 1846     		mov	r0, r3	@ float
 430 017a FFF7FEFF 		bl	__aeabi_f2d
 431 017e 0246     		mov	r2, r0
 432 0180 0B46     		mov	r3, r1
 433              		.loc 1 57 20 is_stmt 1 discriminator 1
 434 0182 B968     		ldr	r1, [r7, #8]
 435 0184 C1E90C23 		strd	r2, [r1, #48]
  58:Core/Src/mpu6050.c **** 
  59:Core/Src/mpu6050.c ****     uint8_t gyroData[6];
  60:Core/Src/mpu6050.c ****     isItReading = HAL_I2C_Mem_Read(hi2c1, devAddress, GYRO_XOUT_H_REG, 1, gyroData, 6, 100);
 436              		.loc 1 60 19
 437 0188 6423     		movs	r3, #100
 438 018a 0293     		str	r3, [sp, #8]
 439 018c 0623     		movs	r3, #6
 440 018e 0193     		str	r3, [sp, #4]
 441 0190 07F11003 		add	r3, r7, #16
 442 0194 0093     		str	r3, [sp]
 443 0196 0123     		movs	r3, #1
 444 0198 4322     		movs	r2, #67
 445 019a D021     		movs	r1, #208
 446 019c F868     		ldr	r0, [r7, #12]
 447 019e FFF7FEFF 		bl	HAL_I2C_Mem_Read
 448 01a2 0346     		mov	r3, r0
 449 01a4 FB77     		strb	r3, [r7, #31]
  61:Core/Src/mpu6050.c **** 
  62:Core/Src/mpu6050.c ****     mpuVar->raw_xgyro = (int16_t)((gyroData[0]<<8) | gyroData[1]);
 450              		.loc 1 62 44
 451 01a6 3B7C     		ldrb	r3, [r7, #16]	@ zero_extendqisi2
 452              		.loc 1 62 25
 453 01a8 1BB2     		sxth	r3, r3
 454 01aa 1B02     		lsls	r3, r3, #8
 455 01ac 1AB2     		sxth	r2, r3
 456              		.loc 1 62 62
ARM GAS  C:\Users\Siddhesh\AppData\Local\Temp\cc2bYhQs.s 			page 10


 457 01ae 7B7C     		ldrb	r3, [r7, #17]	@ zero_extendqisi2
 458 01b0 1BB2     		sxth	r3, r3
 459              		.loc 1 62 25
 460 01b2 1343     		orrs	r3, r3, r2
 461 01b4 1AB2     		sxth	r2, r3
 462              		.loc 1 62 23
 463 01b6 BB68     		ldr	r3, [r7, #8]
 464 01b8 1A87     		strh	r2, [r3, #56]	@ movhi
  63:Core/Src/mpu6050.c ****     mpuVar->raw_ygyro = (int16_t)((gyroData[2]<<8) | gyroData[3]);
 465              		.loc 1 63 44
 466 01ba BB7C     		ldrb	r3, [r7, #18]	@ zero_extendqisi2
 467              		.loc 1 63 25
 468 01bc 1BB2     		sxth	r3, r3
 469 01be 1B02     		lsls	r3, r3, #8
 470 01c0 1AB2     		sxth	r2, r3
 471              		.loc 1 63 62
 472 01c2 FB7C     		ldrb	r3, [r7, #19]	@ zero_extendqisi2
 473 01c4 1BB2     		sxth	r3, r3
 474              		.loc 1 63 25
 475 01c6 1343     		orrs	r3, r3, r2
 476 01c8 1AB2     		sxth	r2, r3
 477              		.loc 1 63 23
 478 01ca BB68     		ldr	r3, [r7, #8]
 479 01cc 5A87     		strh	r2, [r3, #58]	@ movhi
  64:Core/Src/mpu6050.c ****     mpuVar->raw_zgyro = (int16_t)((gyroData[4]<<8) | gyroData[5]);
 480              		.loc 1 64 44
 481 01ce 3B7D     		ldrb	r3, [r7, #20]	@ zero_extendqisi2
 482              		.loc 1 64 25
 483 01d0 1BB2     		sxth	r3, r3
 484 01d2 1B02     		lsls	r3, r3, #8
 485 01d4 1AB2     		sxth	r2, r3
 486              		.loc 1 64 62
 487 01d6 7B7D     		ldrb	r3, [r7, #21]	@ zero_extendqisi2
 488 01d8 1BB2     		sxth	r3, r3
 489              		.loc 1 64 25
 490 01da 1343     		orrs	r3, r3, r2
 491 01dc 1AB2     		sxth	r2, r3
 492              		.loc 1 64 23
 493 01de BB68     		ldr	r3, [r7, #8]
 494 01e0 9A87     		strh	r2, [r3, #60]	@ movhi
  65:Core/Src/mpu6050.c **** 
  66:Core/Src/mpu6050.c ****     mpuVar->Gx = mpuVar->raw_xgyro / 65.5; 
 495              		.loc 1 66 24
 496 01e2 BB68     		ldr	r3, [r7, #8]
 497 01e4 B3F93830 		ldrsh	r3, [r3, #56]
 498              		.loc 1 66 36
 499 01e8 1846     		mov	r0, r3
 500 01ea FFF7FEFF 		bl	__aeabi_i2d
 501 01ee 1AA3     		adr	r3, .L7+8
 502 01f0 D3E90023 		ldrd	r2, [r3]
 503 01f4 FFF7FEFF 		bl	__aeabi_ddiv
 504 01f8 0246     		mov	r2, r0
 505 01fa 0B46     		mov	r3, r1
 506              		.loc 1 66 16
 507 01fc B968     		ldr	r1, [r7, #8]
 508 01fe C1E91023 		strd	r2, [r1, #64]
  67:Core/Src/mpu6050.c ****     mpuVar->Gy = mpuVar->raw_ygyro / 65.5;
ARM GAS  C:\Users\Siddhesh\AppData\Local\Temp\cc2bYhQs.s 			page 11


 509              		.loc 1 67 24
 510 0202 BB68     		ldr	r3, [r7, #8]
 511 0204 B3F93A30 		ldrsh	r3, [r3, #58]
 512              		.loc 1 67 36
 513 0208 1846     		mov	r0, r3
 514 020a FFF7FEFF 		bl	__aeabi_i2d
 515 020e 12A3     		adr	r3, .L7+8
 516 0210 D3E90023 		ldrd	r2, [r3]
 517 0214 FFF7FEFF 		bl	__aeabi_ddiv
 518 0218 0246     		mov	r2, r0
 519 021a 0B46     		mov	r3, r1
 520              		.loc 1 67 16
 521 021c B968     		ldr	r1, [r7, #8]
 522 021e C1E91223 		strd	r2, [r1, #72]
  68:Core/Src/mpu6050.c ****     mpuVar->Gz = mpuVar->raw_zgyro / 65.5;
 523              		.loc 1 68 24
 524 0222 BB68     		ldr	r3, [r7, #8]
 525 0224 B3F93C30 		ldrsh	r3, [r3, #60]
 526              		.loc 1 68 36
 527 0228 1846     		mov	r0, r3
 528 022a FFF7FEFF 		bl	__aeabi_i2d
 529 022e 0AA3     		adr	r3, .L7+8
 530 0230 D3E90023 		ldrd	r2, [r3]
 531 0234 FFF7FEFF 		bl	__aeabi_ddiv
 532 0238 0246     		mov	r2, r0
 533 023a 0B46     		mov	r3, r1
 534              		.loc 1 68 16
 535 023c B968     		ldr	r1, [r7, #8]
 536 023e C1E91423 		strd	r2, [r1, #80]
  69:Core/Src/mpu6050.c **** }...
 537              		.loc 1 69 1
 538 0242 00BF     		nop
 539 0244 2037     		adds	r7, r7, #32
 540              	.LCFI13:
 541              		.cfi_def_cfa_offset 8
 542 0246 BD46     		mov	sp, r7
 543              	.LCFI14:
 544              		.cfi_def_cfa_register 13
 545              		@ sp needed
 546 0248 80BD     		pop	{r7, pc}
 547              	.L8:
 548 024a 00BFAFF3 		.align	3
 548      0080
 549              	.L7:
 550 0250 1F85EB51 		.word	1374389535
 551 0254 B89E2340 		.word	1076076216
 552 0258 00000000 		.word	0
 553 025c 00605040 		.word	1079009280
 554 0260 0000C040 		.word	1086324736
 555              		.cfi_endproc
 556              	.LFE139:
 558              		.text
 559              	.Letext0:
 560              		.file 2 "C:/Program Files (x86)/Arm GNU Toolchain arm-none-eabi/13.2 Rel1/arm-none-eabi/include/ma
 561              		.file 3 "C:/Program Files (x86)/Arm GNU Toolchain arm-none-eabi/13.2 Rel1/arm-none-eabi/include/sy
 562              		.file 4 "Drivers/CMSIS/Device/ST/STM32F4xx/Include/stm32f429xx.h"
 563              		.file 5 "Drivers/STM32F4xx_HAL_Driver/Inc/stm32f4xx_hal_def.h"
ARM GAS  C:\Users\Siddhesh\AppData\Local\Temp\cc2bYhQs.s 			page 12


 564              		.file 6 "Drivers/STM32F4xx_HAL_Driver/Inc/stm32f4xx_hal_dma.h"
 565              		.file 7 "Drivers/STM32F4xx_HAL_Driver/Inc/stm32f4xx_hal_i2c.h"
 566              		.file 8 "Core/Inc/IIRFirstOrderFilter.h"
 567              		.file 9 "Core/Inc/mpu6050.h"
ARM GAS  C:\Users\Siddhesh\AppData\Local\Temp\cc2bYhQs.s 			page 13

