ARM GAS  C:\Users\Siddhesh\AppData\Local\Temp\ccb3DGro.s 			page 1


   1              		.cpu cortex-m4
   2              		.arch armv7e-m
   3              		.fpu fpv4-sp-d16
   4              		.eabi_attribute 27, 1
   5              		.eabi_attribute 28, 1
   6              		.eabi_attribute 20, 1
   7              		.eabi_attribute 21, 1
   8              		.eabi_attribute 23, 3
   9              		.eabi_attribute 24, 1
  10              		.eabi_attribute 25, 1
  11              		.eabi_attribute 26, 1
  12              		.eabi_attribute 30, 6
  13              		.eabi_attribute 34, 1
  14              		.eabi_attribute 18, 4
  15              		.file	"mpu6050.c"
  16              		.text
  17              	.Ltext0:
  18              		.cfi_sections	.debug_frame
  19              		.file 1 "Core/Src/mpu6050.c"
  20              		.section	.text.checkMPU6050Connection,"ax",%progbits
  21              		.align	1
  22              		.global	checkMPU6050Connection
  23              		.syntax unified
  24              		.thumb
  25              		.thumb_func
  27              	checkMPU6050Connection:
  28              	.LFB137:
   1:Core/Src/mpu6050.c **** #include <mpu6050.h>
   2:Core/Src/mpu6050.c **** #include <stdio.h>
   3:Core/Src/mpu6050.c **** 
   4:Core/Src/mpu6050.c **** // extern I2C_HandleTypeDef hi2c1;
   5:Core/Src/mpu6050.c **** HAL_StatusTypeDef checkMPU6050Connection(I2C_HandleTypeDef * hi2c1) {
  29              		.loc 1 5 69
  30              		.cfi_startproc
  31              		@ args = 0, pretend = 0, frame = 16
  32              		@ frame_needed = 1, uses_anonymous_args = 0
  33 0000 80B5     		push	{r7, lr}
  34              	.LCFI0:
  35              		.cfi_def_cfa_offset 8
  36              		.cfi_offset 7, -8
  37              		.cfi_offset 14, -4
  38 0002 84B0     		sub	sp, sp, #16
  39              	.LCFI1:
  40              		.cfi_def_cfa_offset 24
  41 0004 00AF     		add	r7, sp, #0
  42              	.LCFI2:
  43              		.cfi_def_cfa_register 7
  44 0006 7860     		str	r0, [r7, #4]
   6:Core/Src/mpu6050.c ****     HAL_StatusTypeDef ret = HAL_I2C_IsDeviceReady(hi2c1, devAddress, 6, 1000);
  45              		.loc 1 6 29
  46 0008 4FF47A73 		mov	r3, #1000
  47 000c 0622     		movs	r2, #6
  48 000e D021     		movs	r1, #208
  49 0010 7868     		ldr	r0, [r7, #4]
  50 0012 FFF7FEFF 		bl	HAL_I2C_IsDeviceReady
  51 0016 0346     		mov	r3, r0
  52 0018 FB73     		strb	r3, [r7, #15]
ARM GAS  C:\Users\Siddhesh\AppData\Local\Temp\ccb3DGro.s 			page 2


   7:Core/Src/mpu6050.c ****     return ret;
  53              		.loc 1 7 12
  54 001a FB7B     		ldrb	r3, [r7, #15]	@ zero_extendqisi2
   8:Core/Src/mpu6050.c **** }
  55              		.loc 1 8 1
  56 001c 1846     		mov	r0, r3
  57 001e 1037     		adds	r7, r7, #16
  58              	.LCFI3:
  59              		.cfi_def_cfa_offset 8
  60 0020 BD46     		mov	sp, r7
  61              	.LCFI4:
  62              		.cfi_def_cfa_register 13
  63              		@ sp needed
  64 0022 80BD     		pop	{r7, pc}
  65              		.cfi_endproc
  66              	.LFE137:
  68              		.section	.text.mpu6050_init,"ax",%progbits
  69              		.align	1
  70              		.global	mpu6050_init
  71              		.syntax unified
  72              		.thumb
  73              		.thumb_func
  75              	mpu6050_init:
  76              	.LFB138:
   9:Core/Src/mpu6050.c **** 
  10:Core/Src/mpu6050.c **** void mpu6050_init(I2C_HandleTypeDef * hi2c1) {
  77              		.loc 1 10 46
  78              		.cfi_startproc
  79              		@ args = 0, pretend = 0, frame = 16
  80              		@ frame_needed = 1, uses_anonymous_args = 0
  81 0000 80B5     		push	{r7, lr}
  82              	.LCFI5:
  83              		.cfi_def_cfa_offset 8
  84              		.cfi_offset 7, -8
  85              		.cfi_offset 14, -4
  86 0002 88B0     		sub	sp, sp, #32
  87              	.LCFI6:
  88              		.cfi_def_cfa_offset 40
  89 0004 04AF     		add	r7, sp, #16
  90              	.LCFI7:
  91              		.cfi_def_cfa 7, 24
  92 0006 7860     		str	r0, [r7, #4]
  11:Core/Src/mpu6050.c ****     HAL_StatusTypeDef mpuReady = checkMPU6050Connection(hi2c1);
  93              		.loc 1 11 34
  94 0008 7868     		ldr	r0, [r7, #4]
  95 000a FFF7FEFF 		bl	checkMPU6050Connection
  96 000e 0346     		mov	r3, r0
  97 0010 FB73     		strb	r3, [r7, #15]
  12:Core/Src/mpu6050.c ****     uint8_t check;
  13:Core/Src/mpu6050.c ****     uint8_t Data;
  14:Core/Src/mpu6050.c **** 
  15:Core/Src/mpu6050.c ****     // check device ID WHO_AM_I
  16:Core/Src/mpu6050.c ****     if (mpuReady == HAL_OK)
  98              		.loc 1 16 8
  99 0012 FB7B     		ldrb	r3, [r7, #15]	@ zero_extendqisi2
 100 0014 002B     		cmp	r3, #0
 101 0016 0CD1     		bne	.L4
ARM GAS  C:\Users\Siddhesh\AppData\Local\Temp\ccb3DGro.s 			page 3


  17:Core/Src/mpu6050.c ****     HAL_I2C_Mem_Read(hi2c1, devAddress, WHO_AM_I_REG, 1, &check, 1, 100);
 102              		.loc 1 17 5
 103 0018 6423     		movs	r3, #100
 104 001a 0293     		str	r3, [sp, #8]
 105 001c 0123     		movs	r3, #1
 106 001e 0193     		str	r3, [sp, #4]
 107 0020 07F10B03 		add	r3, r7, #11
 108 0024 0093     		str	r3, [sp]
 109 0026 0123     		movs	r3, #1
 110 0028 7522     		movs	r2, #117
 111 002a D021     		movs	r1, #208
 112 002c 7868     		ldr	r0, [r7, #4]
 113 002e FFF7FEFF 		bl	HAL_I2C_Mem_Read
 114              	.L4:
  18:Core/Src/mpu6050.c ****     
  19:Core/Src/mpu6050.c ****     if (check == 0x68) {
 115              		.loc 1 19 15
 116 0032 FB7A     		ldrb	r3, [r7, #11]	@ zero_extendqisi2
 117              		.loc 1 19 8
 118 0034 682B     		cmp	r3, #104
 119 0036 42D1     		bne	.L6
 120              	.LBB2:
  20:Core/Src/mpu6050.c ****         /* Switch on the MPU */
  21:Core/Src/mpu6050.c ****         uint8_t tempData = 0b00000000;
 121              		.loc 1 21 17
 122 0038 0023     		movs	r3, #0
 123 003a BB72     		strb	r3, [r7, #10]
  22:Core/Src/mpu6050.c ****         HAL_StatusTypeDef switchOnFlag = HAL_I2C_Mem_Write(hi2c1, devAddress, REG_PWR_MGMT_1, 1, &t
 124              		.loc 1 22 42
 125 003c 6423     		movs	r3, #100
 126 003e 0293     		str	r3, [sp, #8]
 127 0040 0123     		movs	r3, #1
 128 0042 0193     		str	r3, [sp, #4]
 129 0044 07F10A03 		add	r3, r7, #10
 130 0048 0093     		str	r3, [sp]
 131 004a 0123     		movs	r3, #1
 132 004c 6B22     		movs	r2, #107
 133 004e D021     		movs	r1, #208
 134 0050 7868     		ldr	r0, [r7, #4]
 135 0052 FFF7FEFF 		bl	HAL_I2C_Mem_Write
 136 0056 0346     		mov	r3, r0
 137 0058 BB73     		strb	r3, [r7, #14]
  23:Core/Src/mpu6050.c ****         /* Data Rate */
  24:Core/Src/mpu6050.c ****         tempData = 0x07;
 138              		.loc 1 24 18
 139 005a 0723     		movs	r3, #7
 140 005c BB72     		strb	r3, [r7, #10]
  25:Core/Src/mpu6050.c ****         HAL_I2C_Mem_Write(hi2c1, devAddress, tempData, 1, &tempData, 1, 100);
 141              		.loc 1 25 9
 142 005e BB7A     		ldrb	r3, [r7, #10]	@ zero_extendqisi2
 143 0060 1A46     		mov	r2, r3
 144 0062 6423     		movs	r3, #100
 145 0064 0293     		str	r3, [sp, #8]
 146 0066 0123     		movs	r3, #1
 147 0068 0193     		str	r3, [sp, #4]
 148 006a 07F10A03 		add	r3, r7, #10
 149 006e 0093     		str	r3, [sp]
ARM GAS  C:\Users\Siddhesh\AppData\Local\Temp\ccb3DGro.s 			page 4


 150 0070 0123     		movs	r3, #1
 151 0072 D021     		movs	r1, #208
 152 0074 7868     		ldr	r0, [r7, #4]
 153 0076 FFF7FEFF 		bl	HAL_I2C_Mem_Write
  26:Core/Src/mpu6050.c ****         /* Setup Gyroscope */
  27:Core/Src/mpu6050.c ****         tempData = FS_GYRO_CONFIG_500;
 154              		.loc 1 27 18
 155 007a 0823     		movs	r3, #8
 156 007c BB72     		strb	r3, [r7, #10]
  28:Core/Src/mpu6050.c ****         HAL_StatusTypeDef gyroSetupFlag = HAL_I2C_Mem_Write(hi2c1, devAddress, REG_GYRO_CONFIG, 1, 
 157              		.loc 1 28 43
 158 007e 6423     		movs	r3, #100
 159 0080 0293     		str	r3, [sp, #8]
 160 0082 0123     		movs	r3, #1
 161 0084 0193     		str	r3, [sp, #4]
 162 0086 07F10A03 		add	r3, r7, #10
 163 008a 0093     		str	r3, [sp]
 164 008c 0123     		movs	r3, #1
 165 008e 1B22     		movs	r2, #27
 166 0090 D021     		movs	r1, #208
 167 0092 7868     		ldr	r0, [r7, #4]
 168 0094 FFF7FEFF 		bl	HAL_I2C_Mem_Write
 169 0098 0346     		mov	r3, r0
 170 009a 7B73     		strb	r3, [r7, #13]
  29:Core/Src/mpu6050.c ****         /* Setup Acceleration */
  30:Core/Src/mpu6050.c ****         tempData = FS_ACC_CONFIG_4G;
 171              		.loc 1 30 18
 172 009c 0823     		movs	r3, #8
 173 009e BB72     		strb	r3, [r7, #10]
  31:Core/Src/mpu6050.c ****         HAL_StatusTypeDef accelSetupFlag = HAL_I2C_Mem_Write(hi2c1, devAddress, REG_ACC_CONFIG, 1, 
 174              		.loc 1 31 44
 175 00a0 6423     		movs	r3, #100
 176 00a2 0293     		str	r3, [sp, #8]
 177 00a4 0123     		movs	r3, #1
 178 00a6 0193     		str	r3, [sp, #4]
 179 00a8 07F10A03 		add	r3, r7, #10
 180 00ac 0093     		str	r3, [sp]
 181 00ae 0123     		movs	r3, #1
 182 00b0 1C22     		movs	r2, #28
 183 00b2 D021     		movs	r1, #208
 184 00b4 7868     		ldr	r0, [r7, #4]
 185 00b6 FFF7FEFF 		bl	HAL_I2C_Mem_Write
 186 00ba 0346     		mov	r3, r0
 187 00bc 3B73     		strb	r3, [r7, #12]
 188              	.L6:
 189              	.LBE2:
  32:Core/Src/mpu6050.c ****         
  33:Core/Src/mpu6050.c ****     }
  34:Core/Src/mpu6050.c **** }
 190              		.loc 1 34 1
 191 00be 00BF     		nop
 192 00c0 1037     		adds	r7, r7, #16
 193              	.LCFI8:
 194              		.cfi_def_cfa_offset 8
 195 00c2 BD46     		mov	sp, r7
 196              	.LCFI9:
 197              		.cfi_def_cfa_register 13
ARM GAS  C:\Users\Siddhesh\AppData\Local\Temp\ccb3DGro.s 			page 5


 198              		@ sp needed
 199 00c4 80BD     		pop	{r7, pc}
 200              		.cfi_endproc
 201              	.LFE138:
 203              		.global	__aeabi_i2d
 204              		.global	__aeabi_dmul
 205              		.global	__aeabi_ddiv
 206              		.section	.text.mpu6050_readData,"ax",%progbits
 207              		.align	1
 208              		.global	mpu6050_readData
 209              		.syntax unified
 210              		.thumb
 211              		.thumb_func
 213              	mpu6050_readData:
 214              	.LFB139:
  35:Core/Src/mpu6050.c **** 
  36:Core/Src/mpu6050.c **** 
  37:Core/Src/mpu6050.c **** 
  38:Core/Src/mpu6050.c **** void mpu6050_readData(I2C_HandleTypeDef * hi2c1, MPU6050_t * mpuVar) {
 215              		.loc 1 38 70
 216              		.cfi_startproc
 217              		@ args = 0, pretend = 0, frame = 24
 218              		@ frame_needed = 1, uses_anonymous_args = 0
 219 0000 80B5     		push	{r7, lr}
 220              	.LCFI10:
 221              		.cfi_def_cfa_offset 8
 222              		.cfi_offset 7, -8
 223              		.cfi_offset 14, -4
 224 0002 8AB0     		sub	sp, sp, #40
 225              	.LCFI11:
 226              		.cfi_def_cfa_offset 48
 227 0004 04AF     		add	r7, sp, #16
 228              	.LCFI12:
 229              		.cfi_def_cfa 7, 32
 230 0006 7860     		str	r0, [r7, #4]
 231 0008 3960     		str	r1, [r7]
  39:Core/Src/mpu6050.c ****     uint8_t accData[6];
  40:Core/Src/mpu6050.c ****     HAL_StatusTypeDef isItReading = HAL_I2C_Mem_Read(hi2c1, devAddress, ACCEL_XOUT_H_REG, 1, accDat
 232              		.loc 1 40 37
 233 000a 6423     		movs	r3, #100
 234 000c 0293     		str	r3, [sp, #8]
 235 000e 0623     		movs	r3, #6
 236 0010 0193     		str	r3, [sp, #4]
 237 0012 07F11003 		add	r3, r7, #16
 238 0016 0093     		str	r3, [sp]
 239 0018 0123     		movs	r3, #1
 240 001a 3B22     		movs	r2, #59
 241 001c D021     		movs	r1, #208
 242 001e 7868     		ldr	r0, [r7, #4]
 243 0020 FFF7FEFF 		bl	HAL_I2C_Mem_Read
 244 0024 0346     		mov	r3, r0
 245 0026 FB75     		strb	r3, [r7, #23]
  41:Core/Src/mpu6050.c **** 
  42:Core/Src/mpu6050.c ****     mpuVar->raw_xaccel = (int16_t)((accData[0]<<8) | accData[1]);
 246              		.loc 1 42 44
 247 0028 3B7C     		ldrb	r3, [r7, #16]	@ zero_extendqisi2
 248              		.loc 1 42 26
ARM GAS  C:\Users\Siddhesh\AppData\Local\Temp\ccb3DGro.s 			page 6


 249 002a 1BB2     		sxth	r3, r3
 250 002c 1B02     		lsls	r3, r3, #8
 251 002e 1AB2     		sxth	r2, r3
 252              		.loc 1 42 61
 253 0030 7B7C     		ldrb	r3, [r7, #17]	@ zero_extendqisi2
 254 0032 1BB2     		sxth	r3, r3
 255              		.loc 1 42 26
 256 0034 1343     		orrs	r3, r3, r2
 257 0036 1AB2     		sxth	r2, r3
 258              		.loc 1 42 24
 259 0038 3B68     		ldr	r3, [r7]
 260 003a 1A80     		strh	r2, [r3]	@ movhi
  43:Core/Src/mpu6050.c ****     mpuVar->raw_yaccel = (int16_t)((accData[2]<<8) | accData[3]);
 261              		.loc 1 43 44
 262 003c BB7C     		ldrb	r3, [r7, #18]	@ zero_extendqisi2
 263              		.loc 1 43 26
 264 003e 1BB2     		sxth	r3, r3
 265 0040 1B02     		lsls	r3, r3, #8
 266 0042 1AB2     		sxth	r2, r3
 267              		.loc 1 43 61
 268 0044 FB7C     		ldrb	r3, [r7, #19]	@ zero_extendqisi2
 269 0046 1BB2     		sxth	r3, r3
 270              		.loc 1 43 26
 271 0048 1343     		orrs	r3, r3, r2
 272 004a 1AB2     		sxth	r2, r3
 273              		.loc 1 43 24
 274 004c 3B68     		ldr	r3, [r7]
 275 004e 5A80     		strh	r2, [r3, #2]	@ movhi
  44:Core/Src/mpu6050.c ****     mpuVar->raw_zaccel = (int16_t)((accData[4]<<8) | accData[5]);
 276              		.loc 1 44 44
 277 0050 3B7D     		ldrb	r3, [r7, #20]	@ zero_extendqisi2
 278              		.loc 1 44 26
 279 0052 1BB2     		sxth	r3, r3
 280 0054 1B02     		lsls	r3, r3, #8
 281 0056 1AB2     		sxth	r2, r3
 282              		.loc 1 44 61
 283 0058 7B7D     		ldrb	r3, [r7, #21]	@ zero_extendqisi2
 284 005a 1BB2     		sxth	r3, r3
 285              		.loc 1 44 26
 286 005c 1343     		orrs	r3, r3, r2
 287 005e 1AB2     		sxth	r2, r3
 288              		.loc 1 44 24
 289 0060 3B68     		ldr	r3, [r7]
 290 0062 9A80     		strh	r2, [r3, #4]	@ movhi
  45:Core/Src/mpu6050.c **** 
  46:Core/Src/mpu6050.c ****     mpuVar->Ax = mpuVar->raw_xaccel * ACC_FS_4G_SCALE;
 291              		.loc 1 46 24
 292 0064 3B68     		ldr	r3, [r7]
 293 0066 B3F90030 		ldrsh	r3, [r3]
 294              		.loc 1 46 37
 295 006a 1846     		mov	r0, r3
 296 006c FFF7FEFF 		bl	__aeabi_i2d
 297 0070 53A3     		adr	r3, .L8
 298 0072 D3E90023 		ldrd	r2, [r3]
 299 0076 FFF7FEFF 		bl	__aeabi_dmul
 300 007a 0246     		mov	r2, r0
 301 007c 0B46     		mov	r3, r1
ARM GAS  C:\Users\Siddhesh\AppData\Local\Temp\ccb3DGro.s 			page 7


 302 007e 1046     		mov	r0, r2
 303 0080 1946     		mov	r1, r3
 304              		.loc 1 46 39
 305 0082 4FF00002 		mov	r2, #0
 306 0086 524B     		ldr	r3, .L8+16
 307 0088 FFF7FEFF 		bl	__aeabi_ddiv
 308 008c 0246     		mov	r2, r0
 309 008e 0B46     		mov	r3, r1
 310              		.loc 1 46 16
 311 0090 3968     		ldr	r1, [r7]
 312 0092 C1E90223 		strd	r2, [r1, #8]
  47:Core/Src/mpu6050.c ****     mpuVar->Ay = mpuVar->raw_yaccel * ACC_FS_4G_SCALE;
 313              		.loc 1 47 24
 314 0096 3B68     		ldr	r3, [r7]
 315 0098 B3F90230 		ldrsh	r3, [r3, #2]
 316              		.loc 1 47 37
 317 009c 1846     		mov	r0, r3
 318 009e FFF7FEFF 		bl	__aeabi_i2d
 319 00a2 47A3     		adr	r3, .L8
 320 00a4 D3E90023 		ldrd	r2, [r3]
 321 00a8 FFF7FEFF 		bl	__aeabi_dmul
 322 00ac 0246     		mov	r2, r0
 323 00ae 0B46     		mov	r3, r1
 324 00b0 1046     		mov	r0, r2
 325 00b2 1946     		mov	r1, r3
 326              		.loc 1 47 39
 327 00b4 4FF00002 		mov	r2, #0
 328 00b8 454B     		ldr	r3, .L8+16
 329 00ba FFF7FEFF 		bl	__aeabi_ddiv
 330 00be 0246     		mov	r2, r0
 331 00c0 0B46     		mov	r3, r1
 332              		.loc 1 47 16
 333 00c2 3968     		ldr	r1, [r7]
 334 00c4 C1E90423 		strd	r2, [r1, #16]
  48:Core/Src/mpu6050.c ****     mpuVar->Az = mpuVar->raw_zaccel * ACC_FS_4G_SCALE;
 335              		.loc 1 48 24
 336 00c8 3B68     		ldr	r3, [r7]
 337 00ca B3F90430 		ldrsh	r3, [r3, #4]
 338              		.loc 1 48 37
 339 00ce 1846     		mov	r0, r3
 340 00d0 FFF7FEFF 		bl	__aeabi_i2d
 341 00d4 3AA3     		adr	r3, .L8
 342 00d6 D3E90023 		ldrd	r2, [r3]
 343 00da FFF7FEFF 		bl	__aeabi_dmul
 344 00de 0246     		mov	r2, r0
 345 00e0 0B46     		mov	r3, r1
 346 00e2 1046     		mov	r0, r2
 347 00e4 1946     		mov	r1, r3
 348              		.loc 1 48 39
 349 00e6 4FF00002 		mov	r2, #0
 350 00ea 394B     		ldr	r3, .L8+16
 351 00ec FFF7FEFF 		bl	__aeabi_ddiv
 352 00f0 0246     		mov	r2, r0
 353 00f2 0B46     		mov	r3, r1
 354              		.loc 1 48 16
 355 00f4 3968     		ldr	r1, [r7]
 356 00f6 C1E90623 		strd	r2, [r1, #24]
ARM GAS  C:\Users\Siddhesh\AppData\Local\Temp\ccb3DGro.s 			page 8


  49:Core/Src/mpu6050.c **** 
  50:Core/Src/mpu6050.c ****     uint8_t gyroData[6];
  51:Core/Src/mpu6050.c ****     isItReading = HAL_I2C_Mem_Read(hi2c1, devAddress, GYRO_XOUT_H_REG, 1, gyroData, 6, 100);
 357              		.loc 1 51 19
 358 00fa 6423     		movs	r3, #100
 359 00fc 0293     		str	r3, [sp, #8]
 360 00fe 0623     		movs	r3, #6
 361 0100 0193     		str	r3, [sp, #4]
 362 0102 07F10803 		add	r3, r7, #8
 363 0106 0093     		str	r3, [sp]
 364 0108 0123     		movs	r3, #1
 365 010a 4322     		movs	r2, #67
 366 010c D021     		movs	r1, #208
 367 010e 7868     		ldr	r0, [r7, #4]
 368 0110 FFF7FEFF 		bl	HAL_I2C_Mem_Read
 369 0114 0346     		mov	r3, r0
 370 0116 FB75     		strb	r3, [r7, #23]
  52:Core/Src/mpu6050.c **** 
  53:Core/Src/mpu6050.c ****     mpuVar->raw_xgyro = (int16_t)((gyroData[0]<<8) | gyroData[1]);
 371              		.loc 1 53 44
 372 0118 3B7A     		ldrb	r3, [r7, #8]	@ zero_extendqisi2
 373              		.loc 1 53 25
 374 011a 1BB2     		sxth	r3, r3
 375 011c 1B02     		lsls	r3, r3, #8
 376 011e 1AB2     		sxth	r2, r3
 377              		.loc 1 53 62
 378 0120 7B7A     		ldrb	r3, [r7, #9]	@ zero_extendqisi2
 379 0122 1BB2     		sxth	r3, r3
 380              		.loc 1 53 25
 381 0124 1343     		orrs	r3, r3, r2
 382 0126 1AB2     		sxth	r2, r3
 383              		.loc 1 53 23
 384 0128 3B68     		ldr	r3, [r7]
 385 012a 1A84     		strh	r2, [r3, #32]	@ movhi
  54:Core/Src/mpu6050.c ****     mpuVar->raw_ygyro = (int16_t)((gyroData[2]<<8) | gyroData[3]);
 386              		.loc 1 54 44
 387 012c BB7A     		ldrb	r3, [r7, #10]	@ zero_extendqisi2
 388              		.loc 1 54 25
 389 012e 1BB2     		sxth	r3, r3
 390 0130 1B02     		lsls	r3, r3, #8
 391 0132 1AB2     		sxth	r2, r3
 392              		.loc 1 54 62
 393 0134 FB7A     		ldrb	r3, [r7, #11]	@ zero_extendqisi2
 394 0136 1BB2     		sxth	r3, r3
 395              		.loc 1 54 25
 396 0138 1343     		orrs	r3, r3, r2
 397 013a 1AB2     		sxth	r2, r3
 398              		.loc 1 54 23
 399 013c 3B68     		ldr	r3, [r7]
 400 013e 5A84     		strh	r2, [r3, #34]	@ movhi
  55:Core/Src/mpu6050.c ****     mpuVar->raw_zgyro = (int16_t)((gyroData[4]<<8) | gyroData[5]);
 401              		.loc 1 55 44
 402 0140 3B7B     		ldrb	r3, [r7, #12]	@ zero_extendqisi2
 403              		.loc 1 55 25
 404 0142 1BB2     		sxth	r3, r3
 405 0144 1B02     		lsls	r3, r3, #8
 406 0146 1AB2     		sxth	r2, r3
ARM GAS  C:\Users\Siddhesh\AppData\Local\Temp\ccb3DGro.s 			page 9


 407              		.loc 1 55 62
 408 0148 7B7B     		ldrb	r3, [r7, #13]	@ zero_extendqisi2
 409 014a 1BB2     		sxth	r3, r3
 410              		.loc 1 55 25
 411 014c 1343     		orrs	r3, r3, r2
 412 014e 1AB2     		sxth	r2, r3
 413              		.loc 1 55 23
 414 0150 3B68     		ldr	r3, [r7]
 415 0152 9A84     		strh	r2, [r3, #36]	@ movhi
  56:Core/Src/mpu6050.c **** 
  57:Core/Src/mpu6050.c ****     mpuVar->Gx = mpuVar->raw_xgyro / 65.5; 
 416              		.loc 1 57 24
 417 0154 3B68     		ldr	r3, [r7]
 418 0156 B3F92030 		ldrsh	r3, [r3, #32]
 419              		.loc 1 57 36
 420 015a 1846     		mov	r0, r3
 421 015c FFF7FEFF 		bl	__aeabi_i2d
 422 0160 19A3     		adr	r3, .L8+8
 423 0162 D3E90023 		ldrd	r2, [r3]
 424 0166 FFF7FEFF 		bl	__aeabi_ddiv
 425 016a 0246     		mov	r2, r0
 426 016c 0B46     		mov	r3, r1
 427              		.loc 1 57 16
 428 016e 3968     		ldr	r1, [r7]
 429 0170 C1E90A23 		strd	r2, [r1, #40]
  58:Core/Src/mpu6050.c ****     mpuVar->Gy = mpuVar->raw_ygyro / 65.5;
 430              		.loc 1 58 24
 431 0174 3B68     		ldr	r3, [r7]
 432 0176 B3F92230 		ldrsh	r3, [r3, #34]
 433              		.loc 1 58 36
 434 017a 1846     		mov	r0, r3
 435 017c FFF7FEFF 		bl	__aeabi_i2d
 436 0180 11A3     		adr	r3, .L8+8
 437 0182 D3E90023 		ldrd	r2, [r3]
 438 0186 FFF7FEFF 		bl	__aeabi_ddiv
 439 018a 0246     		mov	r2, r0
 440 018c 0B46     		mov	r3, r1
 441              		.loc 1 58 16
 442 018e 3968     		ldr	r1, [r7]
 443 0190 C1E90C23 		strd	r2, [r1, #48]
  59:Core/Src/mpu6050.c ****     mpuVar->Gz = mpuVar->raw_zgyro / 65.5;
 444              		.loc 1 59 24
 445 0194 3B68     		ldr	r3, [r7]
 446 0196 B3F92430 		ldrsh	r3, [r3, #36]
 447              		.loc 1 59 36
 448 019a 1846     		mov	r0, r3
 449 019c FFF7FEFF 		bl	__aeabi_i2d
 450 01a0 09A3     		adr	r3, .L8+8
 451 01a2 D3E90023 		ldrd	r2, [r3]
 452 01a6 FFF7FEFF 		bl	__aeabi_ddiv
 453 01aa 0246     		mov	r2, r0
 454 01ac 0B46     		mov	r3, r1
 455              		.loc 1 59 16
 456 01ae 3968     		ldr	r1, [r7]
 457 01b0 C1E90E23 		strd	r2, [r1, #56]
  60:Core/Src/mpu6050.c **** }...
 458              		.loc 1 60 1
ARM GAS  C:\Users\Siddhesh\AppData\Local\Temp\ccb3DGro.s 			page 10


 459 01b4 00BF     		nop
 460 01b6 1837     		adds	r7, r7, #24
 461              	.LCFI13:
 462              		.cfi_def_cfa_offset 8
 463 01b8 BD46     		mov	sp, r7
 464              	.LCFI14:
 465              		.cfi_def_cfa_register 13
 466              		@ sp needed
 467 01ba 80BD     		pop	{r7, pc}
 468              	.L9:
 469 01bc AFF30080 		.align	3
 470              	.L8:
 471 01c0 1F85EB51 		.word	1374389535
 472 01c4 B89E2340 		.word	1076076216
 473 01c8 00000000 		.word	0
 474 01cc 00605040 		.word	1079009280
 475 01d0 0000C040 		.word	1086324736
 476              		.cfi_endproc
 477              	.LFE139:
 479              		.text
 480              	.Letext0:
 481              		.file 2 "C:/Program Files (x86)/Arm GNU Toolchain arm-none-eabi/13.2 Rel1/arm-none-eabi/include/ma
 482              		.file 3 "C:/Program Files (x86)/Arm GNU Toolchain arm-none-eabi/13.2 Rel1/arm-none-eabi/include/sy
 483              		.file 4 "Drivers/CMSIS/Device/ST/STM32F4xx/Include/stm32f429xx.h"
 484              		.file 5 "Drivers/STM32F4xx_HAL_Driver/Inc/stm32f4xx_hal_def.h"
 485              		.file 6 "Drivers/STM32F4xx_HAL_Driver/Inc/stm32f4xx_hal_dma.h"
 486              		.file 7 "Drivers/STM32F4xx_HAL_Driver/Inc/stm32f4xx_hal_i2c.h"
 487              		.file 8 "Core/Inc/mpu6050.h"
ARM GAS  C:\Users\Siddhesh\AppData\Local\Temp\ccb3DGro.s 			page 11


DEFINED SYMBOLS
                            *ABS*:00000000 mpu6050.c
C:\Users\Siddhesh\AppData\Local\Temp\ccb3DGro.s:21     .text.checkMPU6050Connection:00000000 $t
C:\Users\Siddhesh\AppData\Local\Temp\ccb3DGro.s:27     .text.checkMPU6050Connection:00000000 checkMPU6050Connection
C:\Users\Siddhesh\AppData\Local\Temp\ccb3DGro.s:69     .text.mpu6050_init:00000000 $t
C:\Users\Siddhesh\AppData\Local\Temp\ccb3DGro.s:75     .text.mpu6050_init:00000000 mpu6050_init
C:\Users\Siddhesh\AppData\Local\Temp\ccb3DGro.s:207    .text.mpu6050_readData:00000000 $t
C:\Users\Siddhesh\AppData\Local\Temp\ccb3DGro.s:213    .text.mpu6050_readData:00000000 mpu6050_readData
C:\Users\Siddhesh\AppData\Local\Temp\ccb3DGro.s:471    .text.mpu6050_readData:000001c0 $d
                           .group:00000000 wm4.0.f079ee757cd02b273648dd4f0fb0fb55
                           .group:00000000 wm4.stm32f4xx_hal_conf.h.25.47f9051bf4ec028d46a7e2405ed07388
                           .group:00000000 wm4.stm32f4xx.h.38.d053a70ce905afacf9f39dda4c23396b
                           .group:00000000 wm4.stm32f429xx.h.34.42df97e3bab45b53f4e57c4e9dde2c7f
                           .group:00000000 wm4._newlib_version.h.4.6d111ab2e95434b664b53815e5c8ccba
                           .group:00000000 wm4.features.h.33.2eefb68b261e70563a8ac654e712169f
                           .group:00000000 wm4._default_types.h.15.247e5cd201eca3442cbf5404108c4935
                           .group:00000000 wm4._intsup.h.10.48bafbb683905c4daa4565a85aeeb264
                           .group:00000000 wm4._stdint.h.10.c24fa3af3bc1706662bb5593a907e841
                           .group:00000000 wm4.stdint.h.23.d53047a68f4a85177f80b422d52785ed
                           .group:00000000 wm4.cmsis_version.h.32.0ac195c83bb4537824e6ad1c47474b79
                           .group:00000000 wm4.core_cm4.h.66.e4ff136c4a17abc46741866f64f8e729
                           .group:00000000 wm4.cmsis_gcc.h.26.498d0ad17a45fc9ef20fdc01caf02259
                           .group:00000000 wm4.core_cm4.h.174.62be9b4588d49bed18171771001331df
                           .group:00000000 wm4.mpu_armv7.h.32.83326921a797fa9d6f70449916b4b839
                           .group:00000000 wm4.stm32f429xx.h.1024.d29798e268c99a104baf1d225206508d
                           .group:00000000 wm4.stm32f4xx.h.195.a4b8bf80f37cc96981498656ffe5f588
                           .group:00000000 wm4.stm32_hal_legacy.h.22.a3518bfca5d6be2a3e3116a49624c24d
                           .group:00000000 wm4.stddef.h.39.0dc9006b34572d4d9cae4c8b422c4971
                           .group:00000000 wm4.stm32f4xx_hal_def.h.58.3cb484e92e5ccf2e55312a4714e27917
                           .group:00000000 wm4.stm32f4xx_hal_rcc_ex.h.20.ffb2e3f871e1d4b256123f825b3acaea
                           .group:00000000 wm4.stm32f4xx_hal_rcc.h.106.7a3b8fae3878f325ccf2eab43ac149ad
                           .group:00000000 wm4.stm32f4xx_hal_gpio.h.21.22da6a14b6049d6ac156577be74df1d7
                           .group:00000000 wm4.stm32f4xx_hal_gpio_ex.h.21.0bf68a49d3f777cd991627d0e08a2d5e
                           .group:00000000 wm4.stm32f4xx_hal_gpio.h.254.d7e07832f748fe8bcb575db0b8373592
                           .group:00000000 wm4.stm32f4xx_hal_exti.h.21.303b0d76f76068cfec77f0fbc85835c0
                           .group:00000000 wm4.stm32f4xx_hal_dma.h.21.8e4b1421c914345c23be719e5e528779
                           .group:00000000 wm4.stm32f4xx_hal_dma.h.720.ac2d7eef74792e4026acc4d2923c5da4
                           .group:00000000 wm4.stm32f4xx_hal_cortex.h.20.a1e25f69ec9adea00da0353b137e869f
                           .group:00000000 wm4.stm32f4xx_hal_flash.h.20.2f1e0d1b7010b3a81a7980aaf712e7e5
                           .group:00000000 wm4.stm32f4xx_hal_flash_ex.h.20.0633581e18e8d959fa43f07a9d860979
                           .group:00000000 wm4.stm32f4xx_hal_flash.h.361.23bc19b9eac79b0956d913651841ede8
                           .group:00000000 wm4.stm32f4xx_hal_i2c.h.21.147e96a27b1f7b1f2f8ee22132703ee3
                           .group:00000000 wm4.stm32f4xx_hal_i2c_ex.h.21.951ef5bfa13cf131d2015c338e82e461
                           .group:00000000 wm4.stm32f4xx_hal_i2c.h.647.ade9c3447780b1cc0ece02f0ce83aedc
                           .group:00000000 wm4.stm32f4xx_hal_pwr.h.20.1905a0783a9c83adefd7df0c4b501e40
                           .group:00000000 wm4.stm32f4xx_hal_pwr_ex.h.20.1cd454a68f4573ea11695d020c0de0f5
                           .group:00000000 wm4.stm32f4xx_hal_pwr.h.338.debc0a4a62ba54688e63ab53dd99c4ea
                           .group:00000000 wm4.stm32f4xx_hal_uart.h.21.ba8e24dd05c77faac3f3d48472e636ba
                           .group:00000000 wm4.stm32f4xx_ll_usb.h.21.371f1231e90cf558b19e6b21e6eb7150
                           .group:00000000 wm4.stm32f4xx_hal_pcd.h.155.9516e0722978902161f66a3ea59779ae
                           .group:00000000 wm4.stm32f4xx_hal.h.71.f077b42c1edb7a9e0b40aa6b2558aed9
                           .group:00000000 wm4.mpu6050.h.11.f360a927cf9a4304dfe327ef0eed37c3
                           .group:00000000 wm4.newlib.h.7.94397327844a69ac8ce8d46310803afa
                           .group:00000000 wm4.ieeefp.h.77.5ad60f72ea25fc152400b550ac118212
                           .group:00000000 wm4.config.h.224.10ee1ad185d877c6e334e6581faab44d
                           .group:00000000 wm4._ansi.h.31.de524f58584151836e90d8620a16f8e8
                           .group:00000000 wm4.stdio.h.31.7c0e28c411445f3f9c5b11accf882760
ARM GAS  C:\Users\Siddhesh\AppData\Local\Temp\ccb3DGro.s 			page 12


                           .group:00000000 wm4.stddef.h.158.eec8bf00b5213f43d095cb984c5f22e3
                           .group:00000000 wm4.cdefs.h.49.70fc7af612f78ddcace70fdd90b5623b
                           .group:00000000 wm4.stdarg.h.34.3a23a216c0c293b3d2ea2e89281481e6
                           .group:00000000 wm4._types.h.20.dd0d04dca3800a0d2a6129b87f3adbb2
                           .group:00000000 wm4.stddef.h.158.6f8e08a347b1cff664332fa350bfceb3
                           .group:00000000 wm4._types.h.127.3bdfe3ff8ea2d0985b03d9cbe93480e3
                           .group:00000000 wm4.reent.h.18.25503cdc8b7e55dd0d6ea7b3e5af7a03
                           .group:00000000 wm4.lock.h.2.1461d1fff82dffe8bfddc23307f6484f
                           .group:00000000 wm4.reent.h.78.7f0775353a33c852a1479c008f68cd03
                           .group:00000000 wm4.stdio.h.67.0cf8a9c281ab0b348aef5c02e7e48825
                           .group:00000000 wm4.stdio.h.2.4aa87247282eca6c8f36f9de33d8df1a
                           .group:00000000 wm4.stdio.h.87.a1e20d2651f9bfb66e51bfbe849db00a

UNDEFINED SYMBOLS
HAL_I2C_IsDeviceReady
HAL_I2C_Mem_Read
HAL_I2C_Mem_Write
__aeabi_i2d
__aeabi_dmul
__aeabi_ddiv
